Certificate:
    Data:
        Version: 3 (0x2)
        Serial Number: 2 (0x2)
        Signature Algorithm: sha512WithRSAEncryption
        Issuer: C=IN, ST=Karnataka, L=Bangalore, O=Alephnull Inc., OU=Research Department, CN=Alephnull CA/emailAddress=alephnull@gmail.com
        Validity
            Not Before: Jan 12 03:11:54 2017 GMT
            Not After : Jan 10 03:11:54 2027 GMT
        Subject: C=TH, ST=Rayong, L=Banchang, O=Wobe Inc, CN=Alok Singh
        Subject Public Key Info:
            Public Key Algorithm: rsaEncryption
            RSA Public Key: (4096 bit)
                Modulus (4096 bit):
                    00:bd:f5:5a:ff:c3:42:4b:90:d4:c2:fc:df:c6:d4:
                    88:3c:b3:be:59:11:ed:10:c7:3c:59:75:28:37:b9:
                    db:40:c2:82:63:d5:8b:59:c5:78:25:9d:8c:34:d4:
                    54:20:ed:ac:a6:cd:fc:24:3d:e6:cf:12:f1:a4:3d:
                    18:b2:83:fb:1d:46:99:8f:69:9d:ff:99:fe:5f:75:
                    9d:3c:ef:ff:19:9f:c9:b0:ad:c1:ad:0b:a3:87:81:
                    bb:d3:b5:66:4d:6b:de:77:08:5c:c8:45:8f:c4:59:
                    72:c7:b8:2e:2b:92:86:a0:66:5a:ed:67:57:77:43:
                    5d:45:8a:3b:6a:0c:53:e1:da:87:1d:1b:be:b7:78:
                    5c:1d:74:8c:d6:a8:6a:35:ba:3d:9b:b9:11:ae:e0:
                    5a:54:98:8e:24:a1:06:e0:a8:e6:e9:53:3e:da:ed:
                    fa:07:fb:3e:b7:1d:15:75:b2:9c:5c:7b:bc:72:d0:
                    10:7a:af:a6:16:49:ea:ba:b8:33:55:85:4c:7f:f9:
                    93:de:4d:62:ec:16:83:b7:51:56:13:47:7a:7d:49:
                    c7:4a:52:27:82:cf:81:32:9d:3f:10:44:e7:6b:92:
                    b5:1a:64:88:97:94:4c:f4:18:a1:5b:90:75:f6:41:
                    e8:24:cb:88:54:95:f7:ec:58:e5:2d:89:c7:09:78:
                    cf:fd:e0:0c:dd:e1:b8:60:24:f2:8c:f1:bf:be:ae:
                    71:2f:62:dd:6c:87:aa:d2:52:c9:c4:c8:ff:e7:3d:
                    a5:a1:b9:27:10:8f:94:0c:7a:02:69:d1:91:b6:da:
                    d5:19:3a:e2:90:60:6a:40:62:0e:a2:10:fa:4f:28:
                    db:42:15:59:75:d3:04:ff:8d:4c:23:38:70:8a:4d:
                    02:18:c4:5f:4f:6e:b8:4b:4e:ef:09:2e:5f:5e:7d:
                    4a:31:8e:50:91:f8:cf:f6:41:4c:c7:c1:7a:41:73:
                    67:53:a2:7a:25:3b:4e:a1:54:e5:97:a9:b9:21:23:
                    5d:37:4f:89:2d:c4:1c:7a:82:e7:a0:34:ed:a4:a6:
                    63:8c:1a:6f:e5:4c:af:38:20:cd:91:e8:c3:f9:c4:
                    89:a5:3f:40:1e:24:2a:30:9a:58:46:09:ae:43:74:
                    7a:af:c5:e3:f8:3e:b8:57:d2:61:fe:22:9d:04:ab:
                    9d:16:2f:f5:b5:c8:78:31:9e:cd:f0:73:2b:55:52:
                    e3:7c:38:6f:e3:da:16:b4:4c:82:af:f8:b2:14:72:
                    9d:a5:26:d1:a1:13:89:91:19:b1:78:cb:72:3e:f9:
                    43:91:c1:08:9f:4c:1a:06:9a:7d:1b:e0:56:6a:3e:
                    21:17:c4:3e:d2:d6:6f:63:bb:26:36:0b:1b:4d:bb:
                    7a:bb:2b
                Exponent: 65537 (0x10001)
        X509v3 extensions:
            X509v3 Subject Key Identifier: 
                39:7A:BF:34:DF:4E:98:F0:0A:A5:52:FD:50:F4:89:38:AE:ED:43:6E
            X509v3 Authority Key Identifier: 
                keyid:34:1F:6A:F4:AD:28:35:8C:33:05:C0:82:FE:3C:0C:C8:02:CC:68:8A

            X509v3 Basic Constraints: 
                CA:FALSE
            X509v3 Key Usage: 
                Digital Signature, Key Encipherment
            X509v3 Subject Alternative Name: 
                DNS:euclid
            Netscape Comment: 
                OpenSSL Generated Certificate
    Signature Algorithm: sha512WithRSAEncryption
        43:f6:03:85:e1:19:08:97:39:c1:6b:c3:ab:62:c6:4c:6f:1c:
        3a:f5:9b:f9:7a:dc:24:28:b8:99:e9:fb:e2:dc:4c:3c:de:b4:
        aa:98:2c:a8:77:7b:e5:24:f3:da:93:36:46:d4:e4:cd:7f:30:
        7e:ec:5d:85:e0:2c:5b:8e:8f:79:0a:9e:4a:f1:d8:fb:a0:1f:
        b9:f8:b3:53:f2:ab:f2:d7:eb:65:3b:ad:c3:4f:79:1c:f8:2d:
        30:83:16:59:bd:11:d1:85:88:3d:8d:5d:ec:c3:92:45:a8:6e:
        97:3c:35:1d:ed:3c:29:e6:14:59:34:75:93:a3:fe:a3:d2:08:
        cc:1f:7d:1e:d7:b2:d1:95:8a:94:62:b1:34:f6:1f:7b:54:96:
        63:37:30:e3:dc:3a:d1:3d:92:09:a8:89:cb:f7:27:af:25:a7:
        06:c7:96:9e:82:cc:ee:a9:6f:f2:38:ed:7b:53:a5:50:31:04:
        b5:61:45:6e:52:62:c9:52:35:79:06:e7:fa:90:a2:c8:fc:43:
        70:66:fa:83:90:b0:c8:7d:16:6b:b3:f7:11:74:e1:ca:53:de:
        7c:86:6a:f3:b1:bf:15:2f:3e:93:9d:f1:c9:d6:6f:90:1e:34:
        34:d0:58:96:df:fc:90:24:5f:b3:a4:7a:35:54:a3:ca:cc:ac:
        03:51:4a:a0:ba:69:04:da:77:30:84:45:a7:2d:9c:15:0b:96:
        20:c9:63:40:dd:cf:11:ca:3f:91:e7:ab:71:fa:42:33:63:2c:
        bc:7a:66:e0:b9:65:84:3a:39:a7:f7:d4:9f:d7:f7:76:de:bf:
        18:1c:20:b0:2c:1e:08:77:ae:56:81:9e:f3:28:d8:9b:e1:5a:
        85:a5:0b:b3:da:de:c5:fd:e2:d8:03:2e:b6:f3:a5:22:c6:9f:
        ac:f4:e1:94:3e:33:24:d2:0a:7c:51:24:12:c1:56:e3:20:8c:
        dd:0d:76:b9:7c:18:c1:9c:b4:36:1f:45:36:8b:9e:93:85:fd:
        47:39:63:10:c4:ef:43:0f:82:f8:a3:bd:af:8a:81:e8:30:7b:
        da:25:3b:31:bf:47:fa:05:7b:5c:3a:ca:95:ac:ad:92:6c:9c:
        7a:4c:7e:e5:30:0c:9d:23:d5:74:0c:8b:01:4d:55:69:e6:39:
        04:3e:db:1c:dc:0b:40:94:22:a8:ea:ec:01:67:43:e4:38:54:
        f5:9b:19:6c:9a:82:b9:19:86:74:bb:10:a7:b5:04:cb:4a:5c:
        18:4e:7d:5f:58:3f:7e:cf:68:eb:03:30:b1:ae:17:3c:d3:26:
        0a:7b:96:d2:41:93:05:cb:ca:d4:ae:b5:30:dd:42:07:05:6e:
        24:dd:c6:2e:cc:72:b5:02
-----BEGIN CERTIFICATE-----
MIIGGTCCBAGgAwIBAgIBAjANBgkqhkiG9w0BAQ0FADCBpzELMAkGA1UEBhMCSU4x
EjAQBgNVBAgMCUthcm5hdGFrYTESMBAGA1UEBwwJQmFuZ2Fsb3JlMRcwFQYDVQQK
DA5BbGVwaG51bGwgSW5jLjEcMBoGA1UECwwTUmVzZWFyY2ggRGVwYXJ0bWVudDEV
MBMGA1UEAwwMQWxlcGhudWxsIENBMSIwIAYJKoZIhvcNAQkBFhNhbGVwaG51bGxA
Z21haWwuY29tMB4XDTE3MDExMjAzMTE1NFoXDTI3MDExMDAzMTE1NFowWTELMAkG
A1UEBhMCVEgxDzANBgNVBAgMBlJheW9uZzERMA8GA1UEBwwIQmFuY2hhbmcxETAP
BgNVBAoMCFdvYmUgSW5jMRMwEQYDVQQDDApBbG9rIFNpbmdoMIICIjANBgkqhkiG
9w0BAQEFAAOCAg8AMIICCgKCAgEAvfVa/8NCS5DUwvzfxtSIPLO+WRHtEMc8WXUo
N7nbQMKCY9WLWcV4JZ2MNNRUIO2sps38JD3mzxLxpD0YsoP7HUaZj2md/5n+X3Wd
PO//GZ/JsK3BrQujh4G707VmTWvedwhcyEWPxFlyx7guK5KGoGZa7WdXd0NdRYo7
agxT4dqHHRu+t3hcHXSM1qhqNbo9m7kRruBaVJiOJKEG4Kjm6VM+2u36B/s+tx0V
dbKcXHu8ctAQeq+mFknqurgzVYVMf/mT3k1i7BaDt1FWE0d6fUnHSlIngs+BMp0/
EETna5K1GmSIl5RM9BihW5B19kHoJMuIVJX37FjlLYnHCXjP/eAM3eG4YCTyjPG/
vq5xL2LdbIeq0lLJxMj/5z2lobknEI+UDHoCadGRttrVGTrikGBqQGIOohD6Tyjb
QhVZddME/41MIzhwik0CGMRfT264S07vCS5fXn1KMY5QkfjP9kFMx8F6QXNnU6J6
JTtOoVTll6m5ISNdN0+JLcQceoLnoDTtpKZjjBpv5UyvOCDNkejD+cSJpT9AHiQq
MJpYRgmuQ3R6r8Xj+D64V9Jh/iKdBKudFi/1tch4MZ7N8HMrVVLjfDhv49oWtEyC
r/iyFHKdpSbRoROJkRmxeMtyPvlDkcEIn0waBpp9G+BWaj4hF8Q+0tZvY7smNgsb
Tbt6uysCAwEAAaOBnDCBmTAdBgNVHQ4EFgQUOXq/NN9OmPAKpVL9UPSJOK7tQ24w
HwYDVR0jBBgwFoAUNB9q9K0oNYwzBcCC/jwMyALMaIowCQYDVR0TBAIwADALBgNV
HQ8EBAMCBaAwEQYDVR0RBAowCIIGZXVjbGlkMCwGCWCGSAGG+EIBDQQfFh1PcGVu
U1NMIEdlbmVyYXRlZCBDZXJ0aWZpY2F0ZTANBgkqhkiG9w0BAQ0FAAOCAgEAQ/YD
heEZCJc5wWvDq2LGTG8cOvWb+XrcJCi4men74txMPN60qpgsqHd75STz2pM2RtTk
zX8wfuxdheAsW46PeQqeSvHY+6AfufizU/Kr8tfrZTutw095HPgtMIMWWb0R0YWI
PY1d7MOSRahulzw1He08KeYUWTR1k6P+o9IIzB99Htey0ZWKlGKxNPYfe1SWYzcw
49w60T2SCaiJy/cnryWnBseWnoLM7qlv8jjte1OlUDEEtWFFblJiyVI1eQbn+pCi
yPxDcGb6g5CwyH0Wa7P3EXThylPefIZq87G/FS8+k53xydZvkB40NNBYlt/8kCRf
s6R6NVSjysysA1FKoLppBNp3MIRFpy2cFQuWIMljQN3PEco/keercfpCM2MsvHpm
4LllhDo5p/fUn9f3dt6/GBwgsCweCHeuVoGe8yjYm+FahaULs9rexf3i2AMutvOl
IsafrPThlD4zJNIKfFEkEsFW4yCM3Q12uXwYwZy0Nh9FNouek4X9RzljEMTvQw+C
+KO9r4qB6DB72iU7Mb9H+gV7XDrKlaytkmycekx+5TAMnSPVdAyLAU1VaeY5BD7b
HNwLQJQiqOrsAWdD5DhU9ZsZbJqCuRmGdLsQp7UEy0pcGE59X1g/fs9o6wMwsa4X
PNMmCnuW0kGTBcvK1K61MN1CBwVuJN3GLsxytQI=
-----END CERTIFICATE-----
