Certificate:
    Data:
        Version: 3 (0x2)
        Serial Number: 1 (0x1)
        Signature Algorithm: sha512WithRSAEncryption
        Issuer: C=IN, ST=Karnataka, L=Bangalore, O=Alephnull Inc., OU=Research Department, CN=Alephnull CA/emailAddress=alephnull@gmail.com
        Validity
            Not Before: Jan 12 02:27:23 2017 GMT
            Not After : Jan 10 02:27:23 2027 GMT
        Subject: C=TH, ST=Rayong, L=Banchang, O=Wobe Inc, CN=Alok Singh
        Subject Public Key Info:
            Public Key Algorithm: rsaEncryption
            RSA Public Key: (4096 bit)
                Modulus (4096 bit):
                    00:f0:b0:d7:3d:a5:c8:b0:a8:a0:6f:52:66:7e:b6:
                    35:93:d9:b1:c5:c4:68:65:0d:7a:cc:92:ec:99:a9:
                    79:a2:99:8f:ee:72:fd:66:7b:f5:61:86:10:a5:f0:
                    f2:72:8e:df:f5:94:b8:c8:63:88:ae:b2:2e:7f:8b:
                    b0:df:18:97:bd:57:e6:f1:d4:17:49:4f:d5:b1:d0:
                    4d:5f:e5:61:ff:23:32:fe:10:70:4e:6b:65:db:60:
                    4c:12:04:42:03:8c:a8:74:45:e5:b7:fb:dc:30:09:
                    64:53:37:bf:c0:f4:52:38:12:bd:35:87:9d:c7:25:
                    95:b1:e7:4f:aa:5a:56:47:c6:ae:56:89:1f:0d:67:
                    a5:1b:36:b5:ab:ab:bf:1d:e6:42:2c:81:99:ed:38:
                    42:bc:80:ad:fb:85:52:eb:a8:bc:e2:8b:74:50:01:
                    c8:ce:32:69:90:e3:4b:9b:60:05:a5:12:a4:bc:ae:
                    5b:dd:7c:a8:7d:2e:00:bf:c4:7a:06:1b:7c:8d:98:
                    65:3c:58:53:d0:fd:23:88:72:40:16:26:92:bc:ec:
                    b8:bf:ab:2b:f7:96:30:27:73:83:ca:f0:2d:0e:d4:
                    bd:57:9f:61:d8:78:94:93:a8:10:19:c5:12:57:24:
                    e1:27:40:d0:c1:16:66:f2:ad:46:e3:3e:6c:af:26:
                    13:54:f3:a4:d1:66:e5:64:54:6a:3c:be:94:7c:d0:
                    71:11:02:ca:ce:d6:ac:1a:0a:62:19:d5:b7:7d:81:
                    1c:39:aa:ab:15:a3:50:fa:3d:0b:e6:5b:e6:57:98:
                    ca:aa:62:82:6d:07:f3:6e:57:fc:71:f6:da:1f:25:
                    77:88:93:7d:31:5c:28:4c:1d:09:b5:d3:55:3e:37:
                    aa:53:51:5e:ac:87:e4:ca:22:7e:a6:a4:c8:61:42:
                    dd:78:e5:f4:97:3c:fe:83:30:dc:56:a4:16:7a:55:
                    af:46:0f:b6:ff:a3:9a:d2:a5:c7:44:06:45:cc:d7:
                    5d:f0:cb:ff:f1:2c:e0:6f:6f:74:96:c9:7f:c8:ad:
                    1c:3d:15:aa:0e:67:68:36:06:c4:f1:81:12:84:34:
                    8b:03:d4:66:fb:70:f7:a9:0f:ab:9b:c5:47:fc:55:
                    28:df:6e:cd:95:55:ae:8f:7b:fd:9c:ec:ff:e2:99:
                    b5:6a:ae:23:0e:b1:21:ca:6e:03:0c:30:56:64:8b:
                    89:fc:d7:62:a4:f8:cf:cf:b3:66:78:40:33:4e:ac:
                    7f:04:c6:7c:1d:2a:cd:b6:ed:75:01:72:15:e2:29:
                    3a:03:7e:4d:91:dc:84:df:1a:b8:47:15:27:4e:62:
                    17:e3:1f:f0:7f:ce:f3:94:45:bc:f3:04:4b:f1:c9:
                    04:df:05
                Exponent: 65537 (0x10001)
        X509v3 extensions:
            X509v3 Subject Key Identifier: 
                26:C9:D0:0F:3C:74:59:88:61:04:E5:48:59:CD:9A:47:7D:AD:C7:BD
            X509v3 Authority Key Identifier: 
                keyid:34:1F:6A:F4:AD:28:35:8C:33:05:C0:82:FE:3C:0C:C8:02:CC:68:8A

            X509v3 Basic Constraints: 
                CA:FALSE
            X509v3 Key Usage: 
                Digital Signature, Key Encipherment
            X509v3 Subject Alternative Name: 
                DNS:wobe.io, DNS:wobe.co.id
            Netscape Comment: 
                OpenSSL Generated Certificate
    Signature Algorithm: sha512WithRSAEncryption
        94:e0:fa:8f:dc:80:45:39:ef:71:19:1b:89:52:3c:18:c8:04:
        c1:d4:3e:ce:8f:90:29:f9:09:e0:6e:73:03:16:8b:ab:48:1f:
        92:76:23:01:a6:4d:33:e2:2a:55:54:66:7f:3f:1b:78:32:0a:
        a7:c4:d9:d6:eb:56:c4:ff:03:c6:ba:96:74:94:a4:b5:7a:19:
        e6:38:a3:d1:6a:8d:52:32:9c:f3:1c:85:01:00:9a:9b:70:56:
        92:50:6a:b4:72:bd:f7:6c:32:67:4a:b1:8c:22:1f:93:22:45:
        9a:b4:64:33:32:1c:e0:09:8c:72:d3:34:b4:67:3a:10:98:3a:
        bb:ef:c3:13:96:d4:27:6b:d4:15:19:57:28:ef:2c:da:d6:b5:
        3c:09:92:5c:d9:e6:8b:38:2a:00:46:0b:09:d0:1a:d0:0c:79:
        12:6c:37:fc:72:66:02:6d:42:bb:31:1b:b9:1d:c5:43:29:bd:
        78:6f:a5:84:b5:36:45:c6:04:f5:69:9a:90:fb:08:8b:f7:c6:
        b8:9b:0a:85:4e:04:2c:52:f2:9a:91:38:2c:ab:62:29:d5:75:
        b8:a8:b1:97:ea:b4:02:be:75:a6:15:d1:06:42:bf:4c:60:1b:
        02:24:a0:b8:2d:ee:a5:cf:a5:89:ed:82:bb:89:22:b1:e2:cf:
        c8:36:63:e2:d1:5e:3d:85:53:d4:25:df:0b:d0:43:51:2d:b2:
        f0:4c:96:cf:40:c4:09:3f:51:85:3e:9d:4a:14:9b:d6:df:1c:
        a2:a8:e8:81:29:52:67:ae:96:68:1e:08:65:26:85:db:53:42:
        c7:c4:71:ca:88:68:1b:d3:64:aa:ed:83:4c:54:37:9d:f2:54:
        2c:a9:39:f3:5c:2e:f8:5b:48:6b:91:dd:c3:41:96:e9:0d:bd:
        fc:56:53:c6:99:20:34:a3:11:79:26:3d:e7:a6:a9:52:60:10:
        b6:62:07:f3:65:d0:f7:6a:0f:87:c2:5b:53:70:d8:70:20:d5:
        65:dd:1c:8b:db:a0:59:9b:4f:2b:f9:b0:ba:5a:43:6f:2c:79:
        a2:30:1a:f3:d7:07:8e:27:53:c7:53:5f:4a:5f:fd:45:ed:1b:
        43:a8:c9:48:73:eb:cf:35:8b:08:01:1c:5e:1f:f9:a5:e8:bd:
        dd:df:28:91:66:9a:2c:88:8a:6d:16:a6:33:5a:3f:35:74:84:
        6d:ad:95:64:ea:fc:d8:7e:6c:92:0b:28:38:d9:fe:7c:2e:55:
        01:54:b8:f9:83:de:1f:6a:68:78:35:12:cc:3c:30:08:ea:ef:
        78:3d:e9:69:2e:06:62:f5:b1:3d:7d:17:ba:02:09:be:33:10:
        3e:62:e6:33:e0:78:0d:99
-----BEGIN CERTIFICATE-----
MIIGJjCCBA6gAwIBAgIBATANBgkqhkiG9w0BAQ0FADCBpzELMAkGA1UEBhMCSU4x
EjAQBgNVBAgMCUthcm5hdGFrYTESMBAGA1UEBwwJQmFuZ2Fsb3JlMRcwFQYDVQQK
DA5BbGVwaG51bGwgSW5jLjEcMBoGA1UECwwTUmVzZWFyY2ggRGVwYXJ0bWVudDEV
MBMGA1UEAwwMQWxlcGhudWxsIENBMSIwIAYJKoZIhvcNAQkBFhNhbGVwaG51bGxA
Z21haWwuY29tMB4XDTE3MDExMjAyMjcyM1oXDTI3MDExMDAyMjcyM1owWTELMAkG
A1UEBhMCVEgxDzANBgNVBAgMBlJheW9uZzERMA8GA1UEBwwIQmFuY2hhbmcxETAP
BgNVBAoMCFdvYmUgSW5jMRMwEQYDVQQDDApBbG9rIFNpbmdoMIICIjANBgkqhkiG
9w0BAQEFAAOCAg8AMIICCgKCAgEA8LDXPaXIsKigb1JmfrY1k9mxxcRoZQ16zJLs
mal5opmP7nL9Znv1YYYQpfDyco7f9ZS4yGOIrrIuf4uw3xiXvVfm8dQXSU/VsdBN
X+Vh/yMy/hBwTmtl22BMEgRCA4yodEXlt/vcMAlkUze/wPRSOBK9NYedxyWVsedP
qlpWR8auVokfDWelGza1q6u/HeZCLIGZ7ThCvICt+4VS66i84ot0UAHIzjJpkONL
m2AFpRKkvK5b3XyofS4Av8R6Bht8jZhlPFhT0P0jiHJAFiaSvOy4v6sr95YwJ3OD
yvAtDtS9V59h2HiUk6gQGcUSVyThJ0DQwRZm8q1G4z5sryYTVPOk0WblZFRqPL6U
fNBxEQLKztasGgpiGdW3fYEcOaqrFaNQ+j0L5lvmV5jKqmKCbQfzblf8cfbaHyV3
iJN9MVwoTB0JtdNVPjeqU1FerIfkyiJ+pqTIYULdeOX0lzz+gzDcVqQWelWvRg+2
/6Oa0qXHRAZFzNdd8Mv/8Szgb290lsl/yK0cPRWqDmdoNgbE8YEShDSLA9Rm+3D3
qQ+rm8VH/FUo327NlVWuj3v9nOz/4pm1aq4jDrEhym4DDDBWZIuJ/NdipPjPz7Nm
eEAzTqx/BMZ8HSrNtu11AXIV4ik6A35NkdyE3xq4RxUnTmIX4x/wf87zlEW88wRL
8ckE3wUCAwEAAaOBqTCBpjAdBgNVHQ4EFgQUJsnQDzx0WYhhBOVIWc2aR32tx70w
HwYDVR0jBBgwFoAUNB9q9K0oNYwzBcCC/jwMyALMaIowCQYDVR0TBAIwADALBgNV
HQ8EBAMCBaAwHgYDVR0RBBcwFYIHd29iZS5pb4IKd29iZS5jby5pZDAsBglghkgB
hvhCAQ0EHxYdT3BlblNTTCBHZW5lcmF0ZWQgQ2VydGlmaWNhdGUwDQYJKoZIhvcN
AQENBQADggIBAJTg+o/cgEU573EZG4lSPBjIBMHUPs6PkCn5CeBucwMWi6tIH5J2
IwGmTTPiKlVUZn8/G3gyCqfE2dbrVsT/A8a6lnSUpLV6GeY4o9FqjVIynPMchQEA
mptwVpJQarRyvfdsMmdKsYwiH5MiRZq0ZDMyHOAJjHLTNLRnOhCYOrvvwxOW1Cdr
1BUZVyjvLNrWtTwJklzZ5os4KgBGCwnQGtAMeRJsN/xyZgJtQrsxG7kdxUMpvXhv
pYS1NkXGBPVpmpD7CIv3xribCoVOBCxS8pqROCyrYinVdbiosZfqtAK+daYV0QZC
v0xgGwIkoLgt7qXPpYntgruJIrHiz8g2Y+LRXj2FU9Ql3wvQQ1EtsvBMls9AxAk/
UYU+nUoUm9bfHKKo6IEpUmeulmgeCGUmhdtTQsfEccqIaBvTZKrtg0xUN53yVCyp
OfNcLvhbSGuR3cNBlukNvfxWU8aZIDSjEXkmPeemqVJgELZiB/Nl0PdqD4fCW1Nw
2HAg1WXdHIvboFmbTyv5sLpaQ28seaIwGvPXB44nU8dTX0pf/UXtG0OoyUhz6881
iwgBHF4f+aXovd3fKJFmmiyIim0WpjNaPzV0hG2tlWTq/Nh+bJILKDjZ/nwuVQFU
uPmD3h9qaHg1Esw8MAjq73g96WkuBmL1sT19F7oCCb4zED5i5jPgeA2Z
-----END CERTIFICATE-----
